target datalayout = "e-m:e-p270:32:32-p271:32:32-p272:64:64-i64:64-i128:128-f80:128-n8:16:32:64-S128"
target triple = "x86_64-pc-linux-gnu"

@.str.4 = private unnamed_addr constant [13 x i8] c"postmaster.c\00", align 1
@ListenSockets = internal global ptr null, align 8
@NumListenSockets = internal global i32 0, align 4
@.str.60 = private unnamed_addr constant [34 x i8] c"could not close listen socket: %m\00", align 1
@__func__.CloseServerPorts = private unnamed_addr constant [17 x i8] c"CloseServerPorts\00", align 1

; Function Attrs: nounwind uwtable
define internal void @CloseServerPorts(i32 noundef %0, i64 noundef %1) #2 {
  %3 = alloca i32, align 4
  %4 = alloca i64, align 8
  %5 = alloca i32, align 4
  store i32 %0, ptr %3, align 4
  store i64 %1, ptr %4, align 8
  call void @llvm.lifetime.start.p0(i64 4, ptr %5) #15
  store i32 0, ptr %5, align 4
  br label %6

6:                                                ; preds = %30, %2
  %7 = load i32, ptr %5, align 4
  %8 = load i32, ptr @NumListenSockets, align 4
  %9 = icmp slt i32 %7, %8
  br i1 %9, label %10, label %33

10:                                               ; preds = %6
  %11 = load ptr, ptr @ListenSockets, align 8
  %12 = load i32, ptr %5, align 4
  %13 = sext i32 %12 to i64
  %14 = getelementptr inbounds i32, ptr %11, i64 %13
  %15 = load i32, ptr %14, align 4
  %16 = call i32 @close(i32 noundef %15)
  %17 = icmp ne i32 %16, 0
  br i1 %17, label %18, label %29

18:                                               ; preds = %10
  br label %19

19:                                               ; preds = %18
  br i1 false, label %20, label %22

20:                                               ; preds = %19
  %21 = call zeroext i1 @errstart_cold(i32 noundef 15, ptr noundef null) #16
  br i1 %21, label %24, label %26

22:                                               ; preds = %19
  %23 = call zeroext i1 @errstart(i32 noundef 15, ptr noundef null)
  br i1 %23, label %24, label %26

24:                                               ; preds = %22, %20
  %25 = call i32 (ptr, ...) @errmsg_internal(ptr noundef @.str.60)
  call void @errfinish(ptr noundef @.str.4, i32 noundef 1414, ptr noundef @__func__.CloseServerPorts)
  br label %26

26:                                               ; preds = %24, %22, %20
  br label %27

27:                                               ; preds = %26
  br label %28

28:                                               ; preds = %27
  br label %29

29:                                               ; preds = %28, %10
  br label %30

30:                                               ; preds = %29
  %31 = load i32, ptr %5, align 4
  %32 = add i32 %31, 1
  store i32 %32, ptr %5, align 4
  br label %6, !llvm.loop !11

33:                                               ; preds = %6
  store i32 0, ptr @NumListenSockets, align 4
  call void @RemoveSocketFiles()
  call void @llvm.lifetime.end.p0(i64 4, ptr %5) #15
  ret void
}