; Function Attrs: nounwind uwtable
define internal void @CloseServerPorts(i32 %0, i64 %1) #2 {
  %3 = load i32, ptr @NumListenSockets, align 4
  %4 = icmp sgt i32 %3, 0
  br i1 %4, label %.lr.ph, label %._crit_edge

.lr.ph:                                           ; preds = %2, %13
  %indvars.iv = phi i64 [ %indvars.iv.next, %13 ], [ 0, %2 ]
  %5 = load ptr, ptr @ListenSockets, align 8
  %6 = getelementptr inbounds nuw i32, ptr %5, i64 %indvars.iv
  %7 = load i32, ptr %6, align 4
  %8 = tail call i32 @close(i32 noundef %7) #18
  %.not = icmp eq i32 %8, 0
  br i1 %.not, label %13, label %9

9:                                                ; preds = %.lr.ph
  %10 = tail call zeroext i1 @errstart(i32 noundef 15, ptr noundef null) #18
  br i1 %10, label %11, label %13

11:                                               ; preds = %9
  %12 = tail call i32 (ptr, ...) @errmsg_internal(ptr noundef nonnull @.str.60) #18
  tail call void @errfinish(ptr noundef nonnull @.str.4, i32 noundef 1414, ptr noundef nonnull @__func__.CloseServerPorts) #18
  br label %13

13:                                               ; preds = %.lr.ph, %11, %9
  %indvars.iv.next = add nuw nsw i64 %indvars.iv, 1
  %14 = load i32, ptr @NumListenSockets, align 4
  %15 = sext i32 %14 to i64
  %16 = icmp slt i64 %indvars.iv.next, %15
  br i1 %16, label %.lr.ph, label %._crit_edge, !llvm.loop !10

._crit_edge:                                      ; preds = %13, %2
  store i32 0, ptr @NumListenSockets, align 4
  tail call void @RemoveSocketFiles() #18
  ret void
}